; Function Attrs: mustprogress uwtable
define noundef i32 @_ZN3zmq8server_t5xrecvEPNS_5msg_tE(ptr noundef nonnull align 8 dereferenceable(1932) %this, ptr noundef %msg_) unnamed_addr #0 align 2 {
entry:
  %pipe = alloca ptr, align 8
  store ptr null, ptr %pipe, align 8
  %_fq = getelementptr inbounds i8, ptr %this, i64 1832
  %call = call noundef i32 @_ZN3zmq4fq_t8recvpipeEPNS_5msg_tEPPNS_6pipe_tE(ptr noundef nonnull align 8 dereferenceable(41) %_fq, ptr noundef %msg_, ptr noundef nonnull %pipe)
  %cond15 = icmp eq i32 %call, 0
  br i1 %cond15, label %land.rhs, label %return

land.rhs:                                         ; preds = %entry, %if.end
  %call2 = call noundef zeroext i8 @_ZNK3zmq5msg_t5flagsEv(ptr noundef nonnull align 8 dereferenceable(64) %msg_)
  %0 = and i8 %call2, 1
  %tobool.not = icmp eq i8 %0, 0
  br i1 %tobool.not, label %do.body, label %while.body

while.body:                                       ; preds = %land.rhs
  %call4 = call noundef i32 @_ZN3zmq4fq_t8recvpipeEPNS_5msg_tEPPNS_6pipe_tE(ptr noundef nonnull align 8 dereferenceable(41) %_fq, ptr noundef nonnull %msg_, ptr noundef null)
  %cmp614 = icmp eq i32 %call4, 0
  br i1 %cmp614, label %land.rhs7, label %return

land.rhs7:                                        ; preds = %while.body, %while.body13
  %call8 = call noundef zeroext i8 @_ZNK3zmq5msg_t5flagsEv(ptr noundef nonnull align 8 dereferenceable(64) %msg_)
  %1 = and i8 %call8, 1
  %tobool11.not = icmp eq i8 %1, 0
  br i1 %tobool11.not, label %if.end, label %while.body13

while.body13:                                     ; preds = %land.rhs7
  %call15 = call noundef i32 @_ZN3zmq4fq_t8recvpipeEPNS_5msg_tEPPNS_6pipe_tE(ptr noundef nonnull align 8 dereferenceable(41) %_fq, ptr noundef nonnull %msg_, ptr noundef null)
  %cmp6 = icmp eq i32 %call15, 0
  br i1 %cmp6, label %land.rhs7, label %return, !llvm.loop !8

if.end:                                           ; preds = %land.rhs7
  %call18 = call noundef i32 @_ZN3zmq4fq_t8recvpipeEPNS_5msg_tEPPNS_6pipe_tE(ptr noundef nonnull align 8 dereferenceable(41) %_fq, ptr noundef nonnull %msg_, ptr noundef nonnull %pipe)
  %cond = icmp eq i32 %call18, 0
  br i1 %cond, label %land.rhs, label %return, !llvm.loop !9

do.body:                                          ; preds = %land.rhs
  %2 = load ptr, ptr %pipe, align 8
  %cmp23.not = icmp eq ptr %2, null
  br i1 %cmp23.not, label %if.then25, label %do.end

if.then25:                                        ; preds = %do.body
  %3 = load ptr, ptr @stderr, align 8
  %call26 = call i32 (ptr, ptr, ...) @fprintf(ptr noundef %3, ptr noundef nonnull @.str, ptr noundef nonnull @.str.8, ptr noundef nonnull @.str.2, i32 noundef 138) #15
  %4 = load ptr, ptr @stderr, align 8
  %call27 = call i32 @fflush(ptr noundef %4)
  call void @_ZN3zmq9zmq_abortEPKc(ptr noundef nonnull @.str.8)
  %.pre = load ptr, ptr %pipe, align 8
  br label %do.end

do.end:                                           ; preds = %do.body, %if.then25
  %5 = phi ptr [ %2, %do.body ], [ %.pre, %if.then25 ]
  %call29 = call noundef i32 @_ZNK3zmq6pipe_t28get_server_socket_routing_idEv(ptr noundef nonnull align 8 dereferenceable(328) %5)
  %call30 = call noundef i32 @_ZN3zmq5msg_t14set_routing_idEj(ptr noundef nonnull align 8 dereferenceable(64) %msg_, i32 noundef %call29)
  br label %return

return:                                           ; preds = %while.body, %if.end, %while.body13, %entry, %do.end
  %rc.013 = phi i32 [ 0, %do.end ], [ %call, %entry ], [ %call15, %while.body13 ], [ %call4, %while.body ], [ %call18, %if.end ]
  ret i32 %rc.013
}